target datalayout = "e-m:e-p270:32:32-p271:32:32-p272:64:64-i64:64-i128:128-f80:128-n8:16:32:64-S128"
target triple = "x86_64-unknown-linux-gnu"

; Function Attrs: mustprogress uwtable
define dso_local void @_ZN2EA4StdC15CallbackManager6UpdateEv(ptr noundef nonnull align 8 dereferenceable(296) %this) unnamed_addr #2 align 2 {
entry:
  %this.addr = alloca ptr, align 8
  %curTick = alloca i64, align 8
  %curTime = alloca i64, align 8
  %curUserEvent = alloca i64, align 8
  store ptr %this, ptr %this.addr, align 8
  %this1 = load ptr, ptr %this.addr, align 8
  store i64 0, ptr %curTick, align 8
  store i64 0, ptr %curTime, align 8
  store i64 0, ptr %curUserEvent, align 8
  call void @_ZN2EA4StdC15CallbackManager14UpdateInternalERlS2_S2_(ptr noundef nonnull align 8 dereferenceable(296) %this1, ptr noundef nonnull align 8 dereferenceable(8) %curTick, ptr noundef nonnull align 8 dereferenceable(8) %curTime, ptr noundef nonnull align 8 dereferenceable(8) %curUserEvent)
  ret void
}